(lp0
(lp1
I1
aI1
a(lp2
(lp3
S'cool'
p4
aI1
aI1
aa(lp5
S'fantastic'
p6
aI1
aI1
aa(lp7
S'kind'
p8
aI1
aI1
aaaS'USERNAME i loovvee my kindle2 not that the dx is cool but the 2 is fantastic in its own right '
p9
aa(lp10
I1
aI1
a(lp11
(lp12
S'love'
p13
aI1
aI1
aa(lp14
S'good'
p15
aI1
aI1
aa(lp16
g8
aI1
aI1
aa(lp17
S'love it'
p18
aI1
aI1
aaaS'reading my kindle2 love it lee childs is good read '
p19
aa(lp20
I1
aI1
a(lp21
(lp22
S'rocks'
p23
aI1
aI1
aa(lp24
g8
aI1
aI1
aa(lp25
S'ok'
p26
aI1
aI1
aaaS'ok first assesment of the kindle2 it fucking rocks '
p27
aa(lp28
I1
aI1
a(lp29
(lp30
g13
aI1
aI1
aa(lp31
g8
aI1
aI1
aa(lp32
g26
aI1
aI1
aaaS'USERNAME you ll love your kindle2 i ve had mine for a few months and never looked back the new big one is huge no need for remorse '
p33
aa(lp34
I1
aI1
a(lp35
(lp36
S'perfect'
p37
aI1
aI1
aa(lp38
g8
aI1
aI1
aa(lp39
S'fair'
p40
aI1
aI1
aaaS'USERNAME fair enough but i have the kindle2 and i think it s perfect '
p41
aa(lp42
I1
aI1
a(lp43
(lp44
g8
aI1
aI1
aa(lp45
S'happy'
p46
aI1
aI1
aaaS'USERNAME no it is too big i m quite happy with the kindle2 '
p47
aa(lp48
I-1
aI-1
a(lp49
(lp50
S'hate'
p51
aI1
aI-1
aa(lp52
S'i hate'
p53
aI1
aI-1
aaaS'fuck this economy i hate aig and their non loan given asses '
p54
aa(lp55
I1
aI1
a(lp56
aS'jquery is my new best friend '
p57
aa(lp58
I1
aI1
a(lp59
(lp60
g13
aI1
aI1
aaaS'loves twitter'
p61
aa(lp62
I1
aI1
a(lp63
(lp64
g13
aI1
aI1
aa(lp65
g26
aI1
aI1
aaaS'how can you not love obama he makes jokes about himself '
p66
aa(lp67
I0
aI1
a(lp68
aS'check this video out president obama at the white house correspondents dinner URL'
p69
aa(lp70
I-1
aI1
a(lp71
aS'USERNAME i firmly believe that obama pelosi have zero desire to be civil it s a charade and a slogan but they want to destroy conservatism'
p72
aa(lp73
I1
aI1
a(lp74
aS'house correspondents dinner was last night whoopi barbara amp sherri went obama got a standing ovation'
p75
aa(lp76
I1
aI1
a(lp77
(lp78
S'hilarious'
p79
aI1
aI1
aaaS'watchin espn jus seen this new nike commerical with a puppet lebron sh t was hilarious lmao '
p80
aa(lp81
I-1
aI1
a(lp82
(lp83
g13
aI1
aI1
aa(lp84
S'ugly'
p85
aI1
aI-1
aaaS'dear nike stop with the flywire that shit is a waste of science and ugly love USERNAME'
p86
aa(lp87
I1
aI1
a(lp88
(lp89
S'elated'
p90
aI1
aI1
aaaS' lebron best athlete of our generation if not all time basketball related i don t want to get into inter sport debates about __1 2'
p91
aa(lp92
I-1
aI-1
a(lp93
(lp94
g51
aI1
aI-1
aaaS'i was talking to this guy last night and he was telling me that he is a die hard spurs fan he also told me that he hates lebron james '
p95
aa(lp96
I1
aI1
a(lp97
(lp98
g13
aI1
aI1
aaaS'i love lebron URL'
p99
aa(lp100
I-1
aI-1
a(lp101
(lp102
S'ill'
p103
aI1
aI-1
aaaS'USERNAME lebron is a beast but i m still cheering 4 the a til the end '
p104
aa(lp105
I1
aI1
a(lp106
aS'USERNAME lebron is the boss'
p107
aa(lp108
I1
aI1
a(lp109
(lp110
g13
aI1
aI1
aa(lp111
S'lol'
p112
aI2
aI1
aaaS'USERNAME lebron is a hometown hero to me lol i love the lakers but let s go cavs lol'
p113
aa(lp114
I1
aI1
a(lp115
(lp116
S'awesome'
p117
aI1
aI1
aaaS'lebron and zydrunas are such an awesome duo'
p118
aa(lp119
I1
aI-1
a(lp120
(lp121
S'lose'
p122
aI1
aI-1
aaaS'USERNAME lebron is a beast nobody in the nba comes even close '
p123
aa(lp124
I1
aI1
a(lp125
(lp126
S'fun'
p127
aI1
aI1
aa(lp128
S'rally'
p129
aI1
aI1
aaaS'downloading apps for my iphone so much fun there literally is an app for just about anything '
p130
aa(lp131
I1
aI1
a(lp132
(lp133
g15
aI1
aI1
aa(lp134
S'fine'
p135
aI1
aI1
aaaS'good news just had a call from the visa office saying everything is fine what a relief i am sick of scams out there stealing '
p136
aa(lp137
I1
aI1
a(lp138
(lp139
g117
aI1
aI1
aaaS'URL awesome come back from USERNAME via USERNAME '
p140
aa(lp141
I1
aI1
a(lp142
aS'in montreal for a long weekend of r amp r much needed '
p143
aa(lp144
I1
aI1
a(lp145
(lp146
g4
aI1
aI1
aa(lp147
S'bad'
p148
aI1
aI-1
aaaS'booz allen hamilton has a bad ass homegrown social collaboration platform way cool ttiv'
p149
aa(lp150
I1
aI1
a(lp151
aS' mluc09 customer innovation award winner booz allen hamilton URL'
p152
aa(lp153
I1
aI1
a(lp154
(lp155
g13
aI1
aI1
aa(lp156
g18
aI1
aI1
aaaS'USERNAME i current use the nikon d90 and love it but not as much as the canon 40d 50d i chose the d90 for the video feature my mistake '
p157
aa(lp158
I0
aI1
a(lp159
(lp160
g15
aI1
aI1
aaaS'need suggestions for a good ir filter for my canon 40d got some pls dm'
p161
aa(lp162
I0
aI1
a(lp163
(lp164
g15
aI1
aI1
aaaS'USERNAME i just checked my google for my business blip shows up as the second entry huh is that a good or ba URL'
p165
aa(lp166
I1
aI1
a(lp167
(lp168
g15
aI1
aI1
aa(lp169
g26
aI1
aI1
aaaS'USERNAME google is always a good place to look should ve mentioned i worked on the mustang w my dad USERNAME '
p170
aa(lp171
I-1
aI-1
a(lp172
(lp173
g103
aI1
aI-1
aaaS'played with an android google phone the slide out screen scares me i would break that fucker so fast still prefer my iphone '
p174
aa(lp175
I-1
aI-1
a(lp176
(lp177
g103
aI1
aI-1
aaaS'us planning to resume the military tribunals at guantanamo bay only this time those on trial will be aig execs and chrysler debt holders'
p178
aa(lp179
I-1
aI-1
a(lp180
(lp181
S'itchy'
p182
aI1
aI-1
aa(lp183
S'bored'
p184
aI1
aI-1
aaaS'omg so bored amp my tattoos are so itchy help aha '
p185
aa(lp186
I-1
aI-1
a(lp187
(lp188
g182
aI1
aI-1
aaaS'i m itchy and miserable '
p189
aa(lp190
I-1
aI1
a(lp191
(lp192
g182
aI1
aI-1
aa(lp193
g112
aI1
aI1
aaaS'USERNAME no i m not itchy for now maybe later lol '
p194
aa(lp195
I1
aI1
a(lp196
(lp197
g13
aI1
aI1
aaaS'rt USERNAME i love the nerdy stanford human biology videos makes me miss school URL'
p198
aa(lp199
I1
aI1
a(lp200
(lp201
S'crazy'
p202
aI1
aI-1
aa(lp203
g15
aI1
aI1
aaaS'USERNAME has been a bit crazy with steep learning curve but lyx is really good for long docs for anything shorter it would be insane '
p204
aa(lp205
I1
aI1
a(lp206
(lp207
S'amazing'
p208
aI1
aI1
aa(lp209
g26
aI1
aI1
aaaS'i m listening to p y t by danny gokey lt 3 lt 3 lt 3 aww he s so amazing i lt 3 him so much '
p210
aa(lp211
I1
aI1
a(lp212
aS'is going to sleep then on a bike ride '
p213
aa(lp214
I-1
aI1
a(lp215
aS'cant sleep my tooth is aching '
p216
aa(lp217
I-1
aI1
a(lp218
aS'blah blah blah same old same old no plans today going back to sleep i guess '
p219
aa(lp220
I-1
aI1
a(lp221
(lp222
S'glad'
p223
aI1
aI1
aa(lp224
S'wtf'
p225
aI1
aI-1
aaaS'glad i didnt do bay to breakers today it s 100 freaking degrees in san francisco wtf'
p226
aa(lp227
I0
aI1
a(lp228
aS'is in san francisco at bay to breakers '
p229
aa(lp230
I0
aI1
a(lp231
aS'just landed at san francisco'
p232
aa(lp233
I0
aI1
a(lp234
aS'san francisco today any suggestions '
p235
aa(lp236
I-1
aI1
a(lp237
aS' obama administration must stop bonuses to aig ponzi schemers URL'
p238
aa(lp239
I-1
aI1
a(lp240
aS'started to think that citi is in really deep s amp t are they gonna survive the turmoil or are they gonna be the next aig '
p241
aa(lp242
I-1
aI1
a(lp243
(lp244
g51
aI1
aI-1
aa(lp245
S'woo'
p246
aI1
aI1
aaaS'shaunwoo hate n on aig'
p247
aa(lp248
I1
aI1
a(lp249
(lp250
g117
aI1
aI1
aa(lp251
g103
aI1
aI-1
aaaS'USERNAME you will not regret going to see star trek it was awesome '
p252
aa(lp253
I0
aI1
a(lp254
aS'on my way to see star trek the esquire '
p255
aa(lp256
I0
aI1
a(lp257
aS'going to see star trek soon with my dad '
p258
aa(lp259
I-1
aI1
a(lp260
(lp261
g223
aI1
aI1
aa(lp262
S'annoying'
p263
aI1
aI-1
aaaS'annoying new trend on the internets people picking apart michael lewis and malcolm gladwell nobody wants to read that '
p264
aa(lp265
I0
aI1
a(lp266
(lp267
g223
aI1
aI1
aa(lp268
g103
aI1
aI-1
aaaS'bill simmons in conversation with malcolm gladwell URL'
p269
aa(lp270
I1
aI1
a(lp271
(lp272
S'recommend'
p273
aI1
aI1
aa(lp274
g223
aI1
aI1
aa(lp275
S'high'
p276
aI1
aI1
aaaS'highly recommend URL by malcolm gladwell'
p277
aa(lp278
I1
aI1
a(lp279
(lp280
g223
aI1
aI1
aa(lp281
g208
aI1
aI1
aa(lp282
g26
aI1
aI1
aaaS'blink by malcolm gladwell amazing book and the tipping point '
p283
aa(lp284
I1
aI1
a(lp285
(lp286
g223
aI1
aI1
aaaS'malcolm gladwell might be my new man crush'
p287
aa(lp288
I-1
aI1
a(lp289
aS'omg the commercials alone on espn are going to drive me nuts '
p290
aa(lp291
I1
aI1
a(lp292
(lp293
g127
aI1
aI1
aaaS'USERNAME playing with twitter api sounds fun may need to take a class or find a new friend who like to generate results with api code '
p294
aa(lp295
I0
aI1
a(lp296
aS'playing with curl and the twitter api'
p297
aa(lp298
I1
aI1
a(lp299
aS'hello twitter api '
p300
aa(lp301
I0
aI1
a(lp302
aS'playing with java and the twitter api'
p303
aa(lp304
I-1
aI1
a(lp305
(lp306
g15
aI1
aI1
aaaS'USERNAME because the twitter api is slow and most client s aren t good '
p307
aa(lp308
I-1
aI1
a(lp309
aS'yahoo answers can be a butt sometimes'
p310
aa(lp311
I1
aI1
a(lp312
(lp313
S'crap'
p314
aI1
aI-1
aa(lp315
g26
aI1
aI1
aaaS'is scrapbooking with nic d'
p316
aa(lp317
I1
aI1
a(lp318
aS'rt USERNAME five things wolfram alpha does better and vastly different than google URL'
p319
aa(lp320
I1
aI1
a(lp321
(lp322
g117
aI1
aI1
aaaS'just changed my default pic to a nike basketball cause bball is awesome '
p323
aa(lp324
I0
aI-1
a(lp325
(lp326
g103
aI1
aI-1
aaaS'nike owns nba playoffs ads w lebron kobe carmelo URL adidas billups howard marketing branding'
p327
aa(lp328
I0
aI1
a(lp329
aS' next time i ll call myself nike '
p330
aa(lp331
I0
aI-1
a(lp332
(lp333
S'pos'
p334
aI1
aI-1
aaaS'new blog post nike sb dunk low premium white gum URL'
p335
aa(lp336
I-1
aI1
a(lp337
aS'rt USERNAME was just told that nike layoffs started today '
p338
aa(lp339
I1
aI1
a(lp340
aS'back when i worked for nike we had one fav word just do it '
p341
aa(lp342
I1
aI1
a(lp343
(lp344
S'inspired'
p345
aI1
aI1
aaaS'by the way i m totally inspired by this freaky nike commercial URL'
p346
aa(lp347
I0
aI1
a(lp348
aS'giving weka an app engine interface using the bird strike data for the tests the logo is a given '
p349
aa(lp350
I0
aI1
a(lp351
aS'brand new canon eos 50d 15mp dslr camera canon 17 85mm is lens web technology thread brand new canon eos 5 URL'
p352
aa(lp353
I1
aI-1
a(lp354
(lp355
g334
aI1
aI-1
aaaS'class the 50d is supposed to come today '
p356
aa(lp357
I-1
aI1
a(lp358
aS'needs someone to explain lambda calculus to him '
p359
aa(lp360
I-1
aI1
a(lp361
(lp362
g26
aI1
aI1
aaaS'took the graduate field exam for computer science today nothing makes you feel like more of an idiot than lambda calculus '
p363
aa(lp364
I1
aI-1
a(lp365
(lp366
S'thanks'
p367
aI1
aI-1
aaaS'shout outs to all east palo alto for being in the buildin karizmakaze 50cal gta also thanks to profits of doom universal hempz cracka '
p368
aa(lp369
I-1
aI1
a(lp370
aS'USERNAME yeahh i wouldn t really have lived in east palo alto if i could have avoided it i guess it s only for the summer '
p371
aa(lp372
I1
aI1
a(lp373
(lp374
S'great'
p375
aI1
aI1
aa(lp376
g367
aI1
aI-1
aa(lp377
S'helpful'
p378
aI1
aI1
aaaS'USERNAME USERNAME great stanford course thanks for making it available to the public really helpful and informative for starting off '
p379
aa(lp380
I0
aI-1
a(lp381
(lp382
g103
aI1
aI-1
aaaS'nvidia names stanford s bill dally chief scientist vp of research URL'
p383
aa(lp384
I0
aI-1
a(lp385
(lp386
g334
aI1
aI-1
aaaS'new blog post harvard versus stanford who wins URL'
p387
aa(lp388
I1
aI1
a(lp389
aS' work til 6pm lets go lakers '
p390
aa(lp391
I-1
aI-1
a(lp392
(lp393
S'damn'
p394
aI1
aI-1
aaaS'damn you north korea URL'
p395
aa(lp396
I-1
aI1
a(lp397
aS'can we just go ahead and blow north korea off the map already '
p398
aa(lp399
I-1
aI1
a(lp400
aS'north korea please cease this douchebaggery china doesn t even like you anymore URL'
p401
aa(lp402
I-1
aI1
a(lp403
aS'why the hell is pelosi in freakin china and on whose dime '
p404
aa(lp405
I-1
aI1
a(lp406
aS'are you burning more cash than chrysler and gm stop the financial tsunami where bailout means taking a handout '
p407
aa(lp408
I-1
aI1
a(lp409
aS'insects have infected my spinach plant '
p410
aa(lp411
I-1
aI1
a(lp412
aS'wish i could catch every mosquito in the world n burn em slowly they been bitin the shit outta me 2day mosquitos are the assholes of insects'
p413
aa(lp414
I-1
aI-1
a(lp415
(lp416
g51
aI1
aI-1
aaaS'just got back from church and i totally hate insects '
p417
aa(lp418
I-1
aI-1
a(lp419
(lp420
S'suck'
p421
aI1
aI-1
aaaS'just got mcdonalds goddam those eggs make me sick o yeah laker up date go lakers not much of an update well it s true so suck it'
p422
aa(lp423
I1
aI1
a(lp424
(lp425
g394
aI1
aI-1
aa(lp426
g112
aI1
aI1
aaaS'omgg i ohhdee want mcdonalds damn i wonder if its open lol '
p427
aa(lp428
I-1
aI1
a(lp429
aS'history exam studying ugh'
p430
aa(lp431
I-1
aI1
a(lp432
(lp433
g51
aI1
aI-1
aa(lp434
g53
aI1
aI-1
aa(lp435
g15
aI1
aI1
aa(lp436
g26
aI1
aI1
aaaS'i hate revision it s so boring i am totally unprepared for my exam tomorrow things are not looking good '
p437
aa(lp438
I-1
aI1
a(lp439
(lp440
g276
aI1
aI1
aa(lp441
g26
aI1
aI1
aaaS'higher physics exam tommorow not lookin forward to it much '
p442
aa(lp443
I1
aI1
a(lp444
(lp445
g223
aI1
aI1
aaaS'i m so glad for not being in physics exam d d d'
p446
aa(lp447
I-1
aI-1
a(lp448
(lp449
S'sucks'
p450
aI1
aI-1
aa(lp451
g421
aI1
aI-1
aaaS'it s a bank holiday yet i m only out of work now exam season sucks '
p452
aa(lp453
I-1
aI1
a(lp454
aS'cheney and bush are the real culprits URL'
p455
aa(lp456
I-1
aI1
a(lp457
aS'life s a bitch and so is dick cheney p2 bipart tlot tcot hhrs gop dnc URL'
p458
aa(lp459
I-1
aI1
a(lp460
aS'dick cheney s dishonest speech about torture terror and obama fred kaplan slate URL'
p461
aa(lp462
I-1
aI-1
a(lp463
(lp464
S'anti'
p465
aI1
aI-1
aaaS' the republican party is a bunch of anti abortion zealots who couldn t draw flies to a dump neal boortz just now on the radio '
p466
aa(lp467
I1
aI1
a(lp468
(lp469
g8
aI1
aI1
aaaS'reading on my new kindle2 '
p470
aa(lp471
I1
aI1
a(lp472
(lp473
g13
aI1
aI1
aa(lp474
g8
aI1
aI1
aa(lp475
g18
aI1
aI1
aaaS'my kindle2 came and i love it '
p476
aa(lp477
I1
aI1
a(lp478
(lp479
g8
aI1
aI1
aa(lp480
g26
aI2
aI1
aaaS'loving my new kindle2 named her kendra in case u were wondering the cookbook is the tool cuz it tells u all the tricks best gift evr '
p481
aa(lp482
I-1
aI1
a(lp483
aS'the real aig scandal URL'
p484
aa(lp485
I0
aI1
a(lp486
aS'any twitter to aprs apps yet '
p487
aa(lp488
I0
aI1
a(lp489
aS'45 pros you should be following on twitter URL'
p490
aa(lp491
I1
aI1
a(lp492
(lp493
g15
aI1
aI1
aa(lp494
g127
aI1
aI1
aa(lp495
S'funny'
p496
aI1
aI1
aa(lp497
g26
aI1
aI1
aaaS'obama is quite a good comedian check out his dinner speech on cnn very funny jokes '
p498
aa(lp499
I1
aI1
a(lp500
(lp501
g375
aI1
aI1
aa(lp502
g127
aI1
aI1
aa(lp503
g496
aI1
aI1
aaaS' barack obama shows his funny side gt gt URL great speech '
p504
aa(lp505
I1
aI1
a(lp506
(lp507
S'i like'
p508
aI1
aI1
aa(lp509
g127
aI1
aI1
aa(lp510
g496
aI1
aI1
aaaS'i like this guy barack obama shows his funny side gt gt URL '
p511
aa(lp512
I1
aI1
a(lp513
(lp514
g117
aI1
aI1
aaaS'obama s speech was pretty awesome last night URL'
p515
aa(lp516
I1
aI-1
a(lp517
(lp518
S'fail'
p519
aI1
aI-1
aa(lp520
g103
aI1
aI-1
aaaS'reading bill clinton fail obama win URL'
p521
aa(lp522
I1
aI1
a(lp523
aS'obama more popular than u s among arabs survey president barack obama s popularity in leading arab countries URL'
p524
aa(lp525
I1
aI1
a(lp526
(lp527
g13
aI1
aI1
aa(lp528
g26
aI1
aI1
aaaS'obama s got jokes haha just got to watch a bit of his after dinner speech from last night i m in love with mr president '
p529
aa(lp530
I-1
aI1
a(lp531
(lp532
g103
aI1
aI-1
aa(lp533
g26
aI1
aI1
aaaS'lebron james got in a car accident i guess just heard it on evening news wow i cant believe it will he be ok URL'
p534
aa(lp535
I1
aI1
a(lp536
(lp537
S'the best'
p538
aI1
aI1
aa(lp539
S'is the best'
p540
aI1
aI1
aaaS'is it me or is this the best the playoffs have been in years oh yea lebron and melo in the finals'
p541
aa(lp542
I1
aI1
a(lp543
(lp544
g538
aI1
aI1
aa(lp545
g540
aI1
aI1
aaaS'USERNAME no lebron is the best'
p546
aa(lp547
I1
aI1
a(lp548
(lp549
g4
aI1
aI1
aa(lp550
g508
aI1
aI1
aa(lp551
g15
aI1
aI1
aaaS'USERNAME lebron is cool i like his personality he has good character '
p552
aa(lp553
I1
aI1
a(lp554
(lp555
g276
aI1
aI1
aa(lp556
g15
aI1
aI1
aa(lp557
g394
aI1
aI-1
aaaS'watching lebron highlights damn that niggas good'
p558
aa(lp559
I1
aI1
a(lp560
aS'USERNAME lebron is murdering shit '
p561
aa(lp562
I1
aI1
a(lp563
aS'USERNAME lebron is a monsta and he is only 24 smh the world ain t ready '
p564
aa(lp565
I1
aI1
a(lp566
(lp567
g375
aI1
aI1
aa(lp568
g15
aI2
aI1
aa(lp569
g103
aI1
aI-1
aaaS'USERNAME when lebron is done in the nba he will probably be greater than kobe like u said kobe is good but there alot of good players '
p570
aa(lp571
I1
aI1
a(lp572
(lp573
g15
aI1
aI1
aaaS'kobe is good bt lebron has my vote'
p574
aa(lp575
I-1
aI1
a(lp576
(lp577
g538
aI1
aI1
aa(lp578
g540
aI1
aI1
aaaS'kobe is the best in the world not lebron '
p579
aa(lp580
I1
aI1
a(lp581
(lp582
g15
aI1
aI1
aa(lp583
g394
aI1
aI-1
aa(lp584
g26
aI1
aI1
aaaS'USERNAME world cup 2010 access damn that s a good look '
p585
aa(lp586
I1
aI1
a(lp587
(lp588
g375
aI1
aI1
aaaS'just bought my tickets for the 2010 fifa world cup in south africa its going to be a great summer URL'
p589
aa(lp590
I0
aI1
a(lp591
aS'share disruption fred wilson s slides for his talk at google hq URL'
p592
aa(lp593
I1
aI1
a(lp594
(lp595
g375
aI1
aI1
aa(lp596
g103
aI1
aI-1
aaaS'the great indian tamasha truly will unfold from may 16 the result day for indian general election '
p597
aa(lp598
I1
aI1
a(lp599
(lp600
g13
aI1
aI1
aa(lp601
g8
aI2
aI1
aaaS'USERNAME i have the kindle2 i ve seen pictures of the dx but haven t seen it in person i love my kindle i m on it everyday '
p602
aa(lp603
I1
aI1
a(lp604
(lp605
g117
aI1
aI1
aa(lp606
g8
aI1
aI1
aaaS'USERNAME such an awesome idea the continual learning program with a kindle2 URL'
p607
aa(lp608
I0
aI1
a(lp609
(lp610
g26
aI1
aI1
aaaS'ok do nothing just thinking about 40d'
p611
aa(lp612
I1
aI1
a(lp613
(lp614
g13
aI4
aI1
aa(lp615
g18
aI1
aI1
aaaS'USERNAME ooh what model are you getting i have the 40d and love love love love it '
p616
aa(lp617
I1
aI1
a(lp618
aS'the times of india the wonder that is india s election URL'
p619
aa(lp620
I1
aI1
a(lp621
(lp622
g15
aI1
aI1
aaaS'URL good video from google on using search options '
p623
aa(lp624
I-1
aI-1
a(lp625
(lp626
g394
aI1
aI-1
aa(lp627
g182
aI1
aI-1
aa(lp628
g112
aI1
aI1
aaaS'USERNAME lol ah my skin is itchy damn lawnmowing '
p629
aa(lp630
I-1
aI-1
a(lp631
(lp632
g51
aI1
aI-1
aa(lp633
g182
aI1
aI-1
aaaS'itchy back dont ya hate it '
p634
aa(lp635
I1
aI1
a(lp636
aS'stanford charity fashion show a top draw URL'
p637
aa(lp638
I1
aI1
a(lp639
(lp640
g26
aI1
aI1
aaaS'stanford university s facebook profile is one of the most popular official university pages URL'
p641
aa(lp642
I1
aI1
a(lp643
(lp644
g4
aI1
aI1
aaaS'lyx is cool '
p645
aa(lp646
I1
aI1
a(lp647
(lp648
g103
aI1
aI-1
aa(lp649
g26
aI1
aI1
aaaS'soo dissapointed they sent danny gokey home you still rock danny my hometown hero yeah milrockee '
p650
aa(lp651
I1
aI1
a(lp652
(lp653
S'cute'
p654
aI1
aI1
aa(lp655
g26
aI1
aI1
aaaS'rt USERNAME american idol fashion adam lambert tones down danny gokey cute URL'
p656
aa(lp657
I1
aI1
a(lp658
(lp659
g13
aI1
aI1
aa(lp660
g26
aI1
aI1
aaaS'USERNAME i love you danny gokey '
p661
aa(lp662
I0
aI1
a(lp663
aS'rt USERNAME rt USERNAME gm onstar now instantly sends accident location coordinates to 911 gps obsessed URL'
p664
aa(lp665
I-1
aI-1
a(lp666
(lp667
S'tired'
p668
aI1
aI-1
aaaS'so tired i didn t sleep well at all last night '
p669
aa(lp670
I-1
aI1
a(lp671
aS'boarding plane for san francisco in 1 hour 6 hr flight blech '
p672
aa(lp673
I-1
aI-1
a(lp674
(lp675
S'hurt'
p676
aI1
aI-1
aaaS'bonjour san francisco my back hurts from last night '
p677
aa(lp678
I0
aI1
a(lp679
aS'breakers in san francisco ca URL'
p680
aa(lp681
I0
aI1
a(lp682
aS'heading to san francisco'
p683
aa(lp684
I1
aI1
a(lp685
(lp686
S'wonderful'
p687
aI1
aI1
aaaS'with my best girl for a few more hours in san francisco mmfamily is wonderful '
p688
aa(lp689
I-1
aI1
a(lp690
aS'f up big or go home aig'
p691
aa(lp692
I1
aI1
a(lp693
aS'went to see the star trek movie last night very satisfying '
p694
aa(lp695
I1
aI1
a(lp696
aS'i can t wait going to see star trek tonight '
p697
aa(lp698
I1
aI1
a(lp699
(lp700
g15
aI1
aI1
aaaS'star trek was as good as everyone said '
p701
aa(lp702
I1
aI1
a(lp703
(lp704
g223
aI1
aI1
aa(lp705
g26
aI1
aI1
aaaS'am loving new malcolm gladwell book outliers'
p706
aa(lp707
I1
aI1
a(lp708
(lp709
g273
aI1
aI1
aa(lp710
g223
aI1
aI1
aa(lp711
g276
aI1
aI1
aa(lp712
g103
aI1
aI-1
aa(lp713
g26
aI1
aI1
aaaS'i highly recommend malcolm gladwell s the tipping point my next audiobook will probably be one of his as well '
p714
aa(lp715
I-1
aI1
a(lp716
(lp717
g223
aI1
aI1
aaaS'malcolm gladwell is a genius at tricking people into not realizing he s a fucking idiot'
p718
aa(lp719
I-1
aI1
a(lp720
(lp721
g223
aI1
aI1
aa(lp722
g263
aI1
aI-1
aaaS'USERNAME hey no offense but malcolm gladwell is a pretenious annoying cunt and he brings you down cant read his shit'
p723
aa(lp724
I1
aI1
a(lp725
(lp726
g375
aI1
aI1
aa(lp727
g223
aI1
aI1
aaaS'rt USERNAME URL great article by malcolm gladwell '
p728
aa(lp729
I1
aI1
a(lp730
(lp731
g223
aI1
aI1
aa(lp732
S'i want'
p733
aI1
aI1
aaaS'i seriously underestimated malcolm gladwell i want to meet this dude '
p734
aa(lp735
I-1
aI-1
a(lp736
(lp737
g51
aI1
aI-1
aa(lp738
g53
aI1
aI-1
aaaS'i hate comcast right now everything is down cable internet amp phone ughh what am i to do'
p739
aa(lp740
I-1
aI-1
a(lp741
(lp742
g450
aI1
aI-1
aa(lp743
g421
aI1
aI-1
aaaS'comcast sucks '
p744
aa(lp745
I-1
aI1
a(lp746
(lp747
g538
aI1
aI1
aa(lp748
g103
aI1
aI-1
aaaS'the day i never have to deal with comcast again will rank as one of the best days of my life '
p749
aa(lp750
I-1
aI-1
a(lp751
(lp752
g519
aI1
aI-1
aaaS'USERNAME did comcast fail again '
p753
aa(lp754
I0
aI1
a(lp755
aS'how do you use the twitter api URL'
p756
aa(lp757
I-1
aI1
a(lp758
aS'curses the twitter api limit'
p759
aa(lp760
I-1
aI1
a(lp761
aS'now i can see why dave winer screams about lack of twitter api its limitations and access throttles '
p762
aa(lp763
I0
aI-1
a(lp764
(lp765
S'sting'
p766
aI1
aI-1
aaaS'testing twitter api'
p767
aa(lp768
I-1
aI-1
a(lp769
(lp770
g202
aI1
aI-1
aaaS'arg twitter api is making me crazy '
p771
aa(lp772
I0
aI-1
a(lp773
(lp774
g766
aI1
aI-1
aaaS'testing twitter api remote update'
p775
aa(lp776
I1
aI1
a(lp777
aS'i m really loving the new search site wolfram alpha makes google seem so quaint URL'
p778
aa(lp779
I-1
aI-1
a(lp780
(lp781
g450
aI1
aI-1
aa(lp782
g421
aI1
aI-1
aaaS' wolfram alpha sucks even for researchers the information provided is less than you can get from google or wikipedia totally useless '
p783
aa(lp784
I1
aI1
a(lp785
aS'off to the nike factory '
p786
aa(lp787
I1
aI1
a(lp788
(lp789
g654
aI1
aI1
aaaS'new nike muppet commercials are pretty cute why do we live together again '
p790
aa(lp791
I0
aI-1
a(lp792
(lp793
g334
aI1
aI-1
aaaS'new blog post nike zoom lebron soldier 3 ii white black teal URL'
p794
aa(lp795
I0
aI-1
a(lp796
(lp797
g334
aI1
aI-1
aaaS'new blog post nike trainer 1 URL'
p798
aa(lp799
I-1
aI1
a(lp800
(lp801
g117
aI1
aI1
aaaS'USERNAME oh those are awesome i so wish they weren t owned by nike '
p802
aa(lp803
I1
aI1
a(lp804
(lp805
g117
aI1
aI1
aaaS'USERNAME URL awesome seeing the show friday at the shoreline amphitheatre never seen nin before can t wait '
p806
aa(lp807
I-1
aI-1
a(lp808
(lp809
g314
aI1
aI-1
aa(lp810
S'crappy'
p811
aI1
aI-1
aaaS'arhh it s weka bug and i spent almost two hours to find that out crappy me'
p812
aa(lp813
I1
aI1
a(lp814
(lp815
g13
aI2
aI1
aaaS'USERNAME hey bud np i do so love my 50d although i d love a 5d mkii more'
p816
aa(lp817
I1
aI1
a(lp818
aS'USERNAME USERNAME just got us a 50d for the office d'
p819
aa(lp820
I1
aI1
a(lp821
(lp822
g117
aI1
aI1
aaaS'just picked up my new canon 50d it s beautiful prepare for some seriously awesome photography '
p823
aa(lp824
I1
aI1
a(lp825
(lp826
g13
aI3
aI1
aa(lp827
g18
aI1
aI1
aaaS'just got my new toy canon 50d love love love it '
p828
aa(lp829
I1
aI1
a(lp830
aS'learning about lambda calculus '
p831
aa(lp832
I0
aI1
a(lp833
aS' jobs sittercity help with taking care of sick child east palo alto ca URL'
p834
aa(lp835
I1
aI1
a(lp836
aS'i m moving to east palo alto '
p837
aa(lp838
I1
aI1
a(lp839
aS' atebits i just finished watching your stanford iphone class session i really appreciate it you rock '
p840
aa(lp841
I1
aI1
a(lp842
(lp843
S'really like'
p844
aI1
aI1
aaaS'USERNAME hi just saw your stanford talk and really liked your advice just saying hi from singapore yes the videos do get around '
p845
aa(lp846
I0
aI1
a(lp847
aS' mba admissions tips stanford gsb deadlines and essay topics 2009 2010 URL'
p848
aa(lp849
I0
aI1
a(lp850
aS'ethics and nonprofits URL stanford socialentrepreneurship'
p851
aa(lp852
I1
aI1
a(lp853
aS'lakers tonight let s go '
p854
aa(lp855
I1
aI-1
a(lp856
(lp857
g103
aI1
aI-1
aaaS'will the lakers kick the nuggets ass tonight '
p858
aa(lp859
I-1
aI-1
a(lp860
(lp861
S'trouble'
p862
aI1
aI-1
aaaS'ooh north korea is in troublee URL'
p863
aa(lp864
I-1
aI1
a(lp865
aS'wat the heck is north korea doing they just conducted powerful nuclear tests follow the link URL'
p866
aa(lp867
I-1
aI1
a(lp868
aS'listening to obama friggin north korea '
p869
aa(lp870
I-1
aI1
a(lp871
aS'i just realized we three monkeys in the white obama biden pelosi sarah palin 2012'
p872
aa(lp873
I-1
aI1
a(lp874
aS'USERNAME pelosi should stay in china and never come back '
p875
aa(lp876
I-1
aI-1
a(lp877
(lp878
S'worst'
p879
aI1
aI-1
aa(lp880
S'the worst'
p881
aI1
aI-1
aa(lp882
g103
aI1
aI-1
aaaS'nancy pelosi gave the worst commencement speech i ve ever heard yes i m still bitter about this'
p883
aa(lp884
I-1
aI1
a(lp885
aS'ugh the amount of times these stupid insects have bitten me grr '
p886
aa(lp887
I1
aI1
a(lp888
aS'prettiest insects ever pink katydids URL'
p889
aa(lp890
I-1
aI-1
a(lp891
(lp892
S'scary'
p893
aI1
aI-1
aa(lp894
S'hungry'
p895
aI1
aI-1
aaaS'just got barraged by a horde of insects hungry for my kitchen light so scary '
p896
aa(lp897
I-1
aI1
a(lp898
aS'USERNAME they are all thieves its no wonder mcdonalds stock is going up'
p899
aa(lp900
I1
aI1
a(lp901
(lp902
g15
aI1
aI1
aaaS'just had mcdonalds for dinner d it was good big mac meal '
p903
aa(lp904
I1
aI1
a(lp905
(lp906
g112
aI1
aI1
aaaS'ahh yes lol ima tell my hubby to go get me sum mcdonalds '
p907
aa(lp908
I1
aI1
a(lp909
aS'wishes mcdonalds delivered'
p910
aa(lp911
I1
aI1
a(lp912
(lp913
S'yummy'
p914
aI1
aI1
aa(lp915
S'yum'
p916
aI1
aI1
aaaS'stopped to have lunch at mcdonalds chicken nuggetss yummy '
p917
aa(lp918
I1
aI1
a(lp919
aS'could go for a lot of mcdonalds i mean a lot '
p920
aa(lp921
I-1
aI1
a(lp922
aS'studying again for cpa exam section on wed wife amp son are at the lake '
p923
aa(lp924
I1
aI1
a(lp925
(lp926
g15
aI1
aI1
aaaS'my exam went good USERNAME your prayers worked '
p927
aa(lp928
I1
aI1
a(lp929
(lp930
g46
aI1
aI1
aaaS'only one exam left and i am so happy for it d'
p931
aa(lp932
I-1
aI-1
a(lp933
(lp934
g519
aI1
aI-1
aaaS'math review im going to fail the exam '
p935
aa(lp936
I-1
aI1
a(lp937
(lp938
S'proud'
p939
aI1
aI1
aaaS'colin powell rocked yesterday on cbs cheney needs to shut the hell up and go home powell is a man of honor and served our country proudly'
p940
aa(lp941
I-1
aI1
a(lp942
aS'obviously not siding with cheney here URL'
p943
aa.